target datalayout = "e-m:e-p270:32:32-p271:32:32-p272:64:64-i64:64-i128:128-f80:128-n8:16:32:64-S128"
target triple = "x86_64-pc-linux-gnu"

%struct.Curl_cwriter = type { ptr, ptr, ptr, i32 }
%struct.Curl_easy = type { i32, i64, i64, ptr, %struct.Curl_llist_node, %struct.Curl_llist_node, i32, i32, %struct.Curl_message, %struct.easy_pollset, %struct.Names, ptr, ptr, ptr, ptr, %struct.SingleRequest, %struct.UserDefined, ptr, ptr, ptr, %struct.Progress, %struct.UrlState, ptr, %struct.PureInfo, %struct.curl_tlssessioninfo }
%struct.Curl_llist_node = type { ptr, ptr, ptr, ptr }
%struct.Curl_message = type { %struct.Curl_llist_node, %struct.CURLMsg }
%struct.CURLMsg = type { i32, ptr, %union.anon }
%union.anon = type { ptr }
%struct.easy_pollset = type { [5 x i32], i32, [5 x i8] }
%struct.Names = type { ptr, i32 }
%struct.SingleRequest = type <{ i64, i64, i64, i64, %struct.curltime, i32, i32, i32, i32, i64, i32, i32, i8, i8, [2 x i8], i32, ptr, ptr, %struct.bufq, i64, i64, ptr, ptr, %union.anon.0, ptr, i8, i32, [3 x i8] }>
%struct.curltime = type { i64, i32 }
%struct.bufq = type { ptr, ptr, ptr, ptr, i64, i64, i64, i32 }
%union.anon.0 = type { ptr }
%struct.UserDefined = type <{ ptr, ptr, ptr, ptr, ptr, ptr, i64, i64, i64, ptr, ptr, i64, ptr, ptr, ptr, ptr, ptr, ptr, ptr, ptr, ptr, ptr, ptr, ptr, ptr, ptr, ptr, ptr, ptr, ptr, ptr, ptr, ptr, ptr, ptr, i64, i64, i64, i64, i64, i64, i64, i64, i64, ptr, ptr, %struct.curl_mimepart, ptr, ptr, ptr, i64, %struct.ssl_config_data, %struct.ssl_config_data, ptr, i16, i8, i8, %struct.ssl_general_config, i32, i32, i32, [4 x i8], ptr, ptr, i64, i32, i8, i8, i8, i8, ptr, ptr, ptr, i32, [4 x i8], [74 x ptr], [8 x ptr], i32, i32, i32, [4 x i8], ptr, i32, [4 x i8], ptr, ptr, ptr, ptr, ptr, i32, i32, i32, i32, i32, i32, i32, i32, i64, ptr, ptr, i64, ptr, i64, ptr, ptr, ptr, ptr, i32, i16, i16, i16, i8, i8, i8, i8, i8, i8, i8, i8, i64, [6 x i8] }>
%struct.curl_mimepart = type { ptr, ptr, i32, i32, ptr, ptr, ptr, ptr, ptr, ptr, ptr, ptr, ptr, ptr, ptr, i64, %struct.mime_state, ptr, %struct.mime_encoder_state, i64 }
%struct.mime_state = type { i32, ptr, i64 }
%struct.mime_encoder_state = type { i64, i64, i64, [256 x i8] }
%struct.ssl_config_data = type { %struct.ssl_primary_config, i64, ptr, ptr, ptr, ptr, ptr, ptr, ptr, i16 }
%struct.ssl_primary_config = type { ptr, ptr, ptr, ptr, ptr, ptr, ptr, ptr, ptr, ptr, ptr, ptr, ptr, ptr, i8, i32, i8, i8 }
%struct.ssl_general_config = type { i32 }
%struct.Progress = type { i64, %struct.pgrs_dir, %struct.pgrs_dir, i64, i64, i32, i32, i64, i64, i64, i64, i64, i64, i64, i64, i64, %struct.curltime, %struct.curltime, %struct.curltime, %struct.curltime, %struct.curltime, [6 x i64], [6 x %struct.curltime], i32, i8 }
%struct.pgrs_dir = type { i64, i64, i64, %struct.pgrs_measure }
%struct.pgrs_measure = type { %struct.curltime, i64 }
%struct.UrlState = type { %struct.curltime, i64, i64, %struct.dynbuf, ptr, i64, ptr, i32, i32, i32, ptr, i32, i64, i32, ptr, %struct.digestdata, %struct.digestdata, %struct.auth, %struct.auth, %struct.Curl_async, ptr, i8, %struct.curltime, %struct.Curl_tree, %struct.Curl_llist, [15 x %struct.time_node], ptr, ptr, i64, i64, i64, i64, [32 x i8], i64, ptr, ptr, ptr, %struct.urlpieces, ptr, ptr, ptr, ptr, ptr, i64, %struct.dynbuf, %struct.Curl_llist, [2 x %struct.curl_header], ptr, i32, ptr, ptr, %struct.store_netrc, %struct.dynamically_allocated_data, i8, i8, i8, i8, i32 }
%struct.digestdata = type { ptr, ptr, ptr, ptr, ptr, ptr, i32, i8, i8 }
%struct.auth = type { i64, i64, i64, i8 }
%struct.Curl_async = type { ptr, ptr, ptr, ptr, i32, i32, i8 }
%struct.Curl_tree = type { ptr, ptr, ptr, ptr, %struct.curltime, ptr }
%struct.time_node = type { %struct.Curl_llist_node, %struct.curltime, i32 }
%struct.urlpieces = type { ptr, ptr, ptr, ptr, ptr, ptr, ptr, ptr }
%struct.dynbuf = type { ptr, i64, i64, i64 }
%struct.Curl_llist = type { ptr, ptr, ptr, i64 }
%struct.curl_header = type { ptr, ptr, i64, i64, i32, ptr }
%struct.store_netrc = type { %struct.dynbuf, ptr, i8 }
%struct.dynamically_allocated_data = type { ptr, ptr, ptr, ptr, ptr, ptr, ptr, ptr, ptr, ptr, ptr, ptr, ptr, ptr }
%struct.PureInfo = type { i32, i32, i32, i64, i64, i64, i64, i64, i64, i64, ptr, ptr, i64, i32, %struct.ip_quadruple, i32, ptr, i32, %struct.curl_certinfo, i32, i8 }
%struct.ip_quadruple = type { [46 x i8], [46 x i8], i32, i32 }
%struct.curl_certinfo = type { i32, ptr }
%struct.curl_tlssessioninfo = type { i32, ptr }

; Function Attrs: nounwind uwtable
define internal i32 @cw_out_write(ptr noundef %0, ptr noundef %1, i32 noundef %2, ptr noundef %3, i64 noundef %4) #0 {
  %6 = alloca i32, align 4
  %7 = alloca ptr, align 8
  %8 = alloca ptr, align 8
  %9 = alloca i32, align 4
  %10 = alloca ptr, align 8
  %11 = alloca i64, align 8
  %12 = alloca ptr, align 8
  %13 = alloca i32, align 4
  %14 = alloca i8, align 1
  %15 = alloca i32, align 4
  store ptr %0, ptr %7, align 8, !tbaa !3
  store ptr %1, ptr %8, align 8, !tbaa !8
  store i32 %2, ptr %9, align 4, !tbaa !19
  store ptr %3, ptr %10, align 8, !tbaa !20
  store i64 %4, ptr %11, align 8, !tbaa !22
  call void @llvm.lifetime.start.p0(i64 8, ptr %12) #3
  %16 = load ptr, ptr %8, align 8, !tbaa !8
  %17 = getelementptr inbounds nuw %struct.Curl_cwriter, ptr %16, i32 0, i32 2
  %18 = load ptr, ptr %17, align 8, !tbaa !10
  store ptr %18, ptr %12, align 8, !tbaa !14
  call void @llvm.lifetime.start.p0(i64 4, ptr %13) #3
  call void @llvm.lifetime.start.p0(i64 1, ptr %14) #3
  %19 = load i32, ptr %9, align 4, !tbaa !19
  %20 = and i32 %19, 128
  %21 = icmp ne i32 %20, 0
  %22 = xor i1 %21, true
  %23 = xor i1 %22, true
  %24 = zext i1 %23 to i8
  store i8 %24, ptr %14, align 1, !tbaa !24
  %25 = load i32, ptr %9, align 4, !tbaa !19
  %26 = and i32 %25, 1
  %27 = icmp ne i32 %26, 0
  br i1 %27, label %41, label %28

28:                                               ; preds = %5
  %29 = load i32, ptr %9, align 4, !tbaa !19
  %30 = and i32 %29, 4
  %31 = icmp ne i32 %30, 0
  br i1 %31, label %32, label %54

32:                                               ; preds = %28
  %33 = load ptr, ptr %7, align 8, !tbaa !3
  %34 = getelementptr inbounds nuw %struct.Curl_easy, ptr %33, i32 0, i32 16
  %35 = getelementptr inbounds nuw %struct.UserDefined, ptr %34, i32 0, i32 119
  %36 = load i64, ptr %35, align 2
  %37 = lshr i64 %36, 27
  %38 = and i64 %37, 1
  %39 = trunc i64 %38 to i32
  %40 = icmp ne i32 %39, 0
  br i1 %40, label %41, label %54

41:                                               ; preds = %32, %5
  %42 = load ptr, ptr %12, align 8, !tbaa !14
  %43 = load ptr, ptr %7, align 8, !tbaa !3
  %44 = load i8, ptr %14, align 1, !tbaa !24, !range !26, !noundef !27
  %45 = trunc i8 %44 to i1
  %46 = load ptr, ptr %10, align 8, !tbaa !20
  %47 = load i64, ptr %11, align 8, !tbaa !22
  %48 = call i32 @cw_out_do_write(ptr noundef %42, ptr noundef %43, i32 noundef 1, i1 noundef zeroext %45, ptr noundef %46, i64 noundef %47)
  store i32 %48, ptr %13, align 4, !tbaa !19
  %49 = load i32, ptr %13, align 4, !tbaa !19
  %50 = icmp ne i32 %49, 0
  br i1 %50, label %51, label %53

51:                                               ; preds = %41
  %52 = load i32, ptr %13, align 4, !tbaa !19
  store i32 %52, ptr %6, align 4
  store i32 1, ptr %15, align 4
  br label %72

53:                                               ; preds = %41
  br label %54

54:                                               ; preds = %53, %32, %28
  %55 = load i32, ptr %9, align 4, !tbaa !19
  %56 = and i32 %55, 6
  %57 = icmp ne i32 %56, 0
  br i1 %57, label %58, label %71

58:                                               ; preds = %54
  %59 = load ptr, ptr %12, align 8, !tbaa !14
  %60 = load ptr, ptr %7, align 8, !tbaa !3
  %61 = load i8, ptr %14, align 1, !tbaa !24, !range !26, !noundef !27
  %62 = trunc i8 %61 to i1
  %63 = load ptr, ptr %10, align 8, !tbaa !20
  %64 = load i64, ptr %11, align 8, !tbaa !22
  %65 = call i32 @cw_out_do_write(ptr noundef %59, ptr noundef %60, i32 noundef 2, i1 noundef zeroext %62, ptr noundef %63, i64 noundef %64)
  store i32 %65, ptr %13, align 4, !tbaa !19
  %66 = load i32, ptr %13, align 4, !tbaa !19
  %67 = icmp ne i32 %66, 0
  br i1 %67, label %68, label %70

68:                                               ; preds = %58
  %69 = load i32, ptr %13, align 4, !tbaa !19
  store i32 %69, ptr %6, align 4
  store i32 1, ptr %15, align 4
  br label %72

70:                                               ; preds = %58
  br label %71

71:                                               ; preds = %70, %54
  store i32 0, ptr %6, align 4
  store i32 1, ptr %15, align 4
  br label %72

72:                                               ; preds = %71, %68, %51
  call void @llvm.lifetime.end.p0(i64 1, ptr %14) #3
  call void @llvm.lifetime.end.p0(i64 4, ptr %13) #3
  call void @llvm.lifetime.end.p0(i64 8, ptr %12) #3
  %73 = load i32, ptr %6, align 4
  ret i32 %73
}