; Function Attrs: nounwind uwtable
define internal i32 @cw_out_write(ptr noundef %0, ptr noundef readonly captures(none) %1, i32 noundef %2, ptr noundef %3, i64 noundef %4) #1 {
  %6 = getelementptr inbounds nuw i8, ptr %1, i64 16
  %7 = load ptr, ptr %6, align 8, !tbaa !3
  %8 = and i32 %2, 1
  %.not = icmp eq i32 %8, 0
  br i1 %.not, label %9, label %15

9:                                                ; preds = %5
  %10 = and i32 %2, 4
  %.not22 = icmp eq i32 %10, 0
  br i1 %.not22, label %17, label %11

11:                                               ; preds = %9
  %12 = getelementptr inbounds nuw i8, ptr %0, i64 2658
  %13 = load i64, ptr %12, align 2
  %14 = and i64 %13, 134217728
  %.not23 = icmp eq i64 %14, 0
  br i1 %.not23, label %17, label %15

15:                                               ; preds = %11, %5
  %16 = tail call fastcc i32 @cw_out_do_write(ptr noundef %7, ptr noundef %0, i32 noundef 1, ptr noundef %3, i64 noundef %4)
  %.not24 = icmp eq i32 %16, 0
  br i1 %.not24, label %17, label %22

17:                                               ; preds = %15, %11, %9
  %18 = and i32 %2, 6
  %.not25 = icmp eq i32 %18, 0
  br i1 %.not25, label %21, label %19

19:                                               ; preds = %17
  %20 = tail call fastcc i32 @cw_out_do_write(ptr noundef %7, ptr noundef %0, i32 noundef 2, ptr noundef %3, i64 noundef %4)
  %.not26 = icmp eq i32 %20, 0
  br i1 %.not26, label %21, label %22

21:                                               ; preds = %19, %17
  br label %22

22:                                               ; preds = %19, %15, %21
  %.0 = phi i32 [ 0, %21 ], [ %16, %15 ], [ %20, %19 ]
  ret i32 %.0
}